target datalayout = "e-m:e-p270:32:32-p271:32:32-p272:64:64-i64:64-i128:128-f80:128-n8:16:32:64-S128"
target triple = "x86_64-pc-linux-gnu"

%struct.Wln_Ret_t_ = type { ptr, %struct.Vec_Int_t_, %struct.Vec_Int_t_, %struct.Vec_Int_t_, %struct.Vec_Int_t_, %struct.Vec_Int_t_, %struct.Vec_Int_t_, %struct.Vec_Int_t_, %struct.Vec_Int_t_, %struct.Vec_Int_t_, %struct.Vec_Int_t_, i32, i32 }
%struct.Vec_Int_t_ = type { i32, i32, ptr }
%struct.Wln_Ntk_t_ = type { ptr, ptr, i32, %struct.Vec_Int_t_, %struct.Vec_Int_t_, %struct.Vec_Int_t_, %struct.Vec_Int_t_, ptr, %struct.Vec_Int_t_, ptr, %struct.Vec_Int_t_, %struct.Vec_Int_t_, ptr, %struct.Vec_Str_t_, i32, %struct.Vec_Int_t_, %struct.Vec_Int_t_, %struct.Vec_Int_t_, %struct.Vec_Int_t_, %struct.Vec_Int_t_, %struct.Vec_Int_t_, %struct.Vec_Int_t_, %struct.Vec_Int_t_, ptr, [99 x i32], [99 x i32] }
%struct.Vec_Str_t_ = type { i32, i32, ptr }
%struct.Wln_Vec_t_ = type { i32, i32, %union.anon }
%union.anon = type { [1 x ptr] }

@.str = private unnamed_addr constant [65 x i8] c"Obj %6d : Type = %6s  NameId = %5d  InstId = %5d  Fanins = %d : \00", align 1
@.str.1 = private unnamed_addr constant [5 x i8] c"%5d \00", align 1
@.str.2 = private unnamed_addr constant [14 x i8] c"(%d : %d %d) \00", align 1
@.str.3 = private unnamed_addr constant [2 x i8] c"\0A\00", align 1

; Function Attrs: inlinehint nounwind uwtable
define internal ptr @Vec_IntEntryP(ptr noundef %0, i32 noundef %1) #2 {
  %3 = alloca ptr, align 8
  %4 = alloca i32, align 4
  store ptr %0, ptr %3, align 8, !tbaa !29
  store i32 %1, ptr %4, align 4, !tbaa !8
  %5 = load ptr, ptr %3, align 8, !tbaa !29
  %6 = getelementptr inbounds nuw %struct.Vec_Int_t_, ptr %5, i32 0, i32 2
  %7 = load ptr, ptr %6, align 8, !tbaa !31
  %8 = load i32, ptr %4, align 4, !tbaa !8
  %9 = sext i32 %8 to i64
  %10 = getelementptr inbounds i32, ptr %7, i64 %9
  ret ptr %10
}

; Function Attrs: inlinehint nounwind uwtable
define internal i32 @Vec_IntEntry(ptr noundef %0, i32 noundef %1) #2 {
  %3 = alloca ptr, align 8
  %4 = alloca i32, align 4
  store ptr %0, ptr %3, align 8, !tbaa !29
  store i32 %1, ptr %4, align 4, !tbaa !8
  %5 = load ptr, ptr %3, align 8, !tbaa !29
  %6 = getelementptr inbounds nuw %struct.Vec_Int_t_, ptr %5, i32 0, i32 2
  %7 = load ptr, ptr %6, align 8, !tbaa !31
  %8 = load i32, ptr %4, align 4, !tbaa !8
  %9 = sext i32 %8 to i64
  %10 = getelementptr inbounds i32, ptr %7, i64 %9
  %11 = load i32, ptr %10, align 4, !tbaa !8
  ret i32 %11
}

; Function Attrs: inlinehint nounwind uwtable
define internal i32 @Wln_ObjIsCi(ptr noundef %0, i32 noundef %1) #2 {
  %3 = alloca ptr, align 8
  %4 = alloca i32, align 4
  store ptr %0, ptr %3, align 8, !tbaa !18
  store i32 %1, ptr %4, align 4, !tbaa !8
  %5 = load ptr, ptr %3, align 8, !tbaa !18
  %6 = load i32, ptr %4, align 4, !tbaa !8
  %7 = call i32 @Wln_ObjType(ptr noundef %5, i32 noundef %6)
  %8 = icmp eq i32 %7, 3
  %9 = zext i1 %8 to i32
  ret i32 %9
}

; Function Attrs: inlinehint nounwind uwtable
define internal ptr @Wln_RetFanins(ptr noundef %0, i32 noundef %1) #2 {
  %3 = alloca ptr, align 8
  %4 = alloca i32, align 4
  store ptr %0, ptr %3, align 8, !tbaa !3
  store i32 %1, ptr %4, align 4, !tbaa !8
  %5 = load ptr, ptr %3, align 8, !tbaa !3
  %6 = getelementptr inbounds nuw %struct.Wln_Ret_t_, ptr %5, i32 0, i32 1
  %7 = load ptr, ptr %3, align 8, !tbaa !3
  %8 = getelementptr inbounds nuw %struct.Wln_Ret_t_, ptr %7, i32 0, i32 1
  %9 = load i32, ptr %4, align 4, !tbaa !8
  %10 = call i32 @Vec_IntEntry(ptr noundef %8, i32 noundef %9)
  %11 = call ptr @Vec_IntEntryP(ptr noundef %6, i32 noundef %10)
  ret ptr %11
}

; Function Attrs: inlinehint nounwind uwtable
define internal i32 @Wln_ObjFaninNum(ptr noundef %0, i32 noundef %1) #2 {
  %3 = alloca ptr, align 8
  %4 = alloca i32, align 4
  store ptr %0, ptr %3, align 8, !tbaa !18
  store i32 %1, ptr %4, align 4, !tbaa !8
  %5 = load ptr, ptr %3, align 8, !tbaa !18
  %6 = getelementptr inbounds nuw %struct.Wln_Ntk_t_, ptr %5, i32 0, i32 7
  %7 = load ptr, ptr %6, align 8, !tbaa !19
  %8 = load i32, ptr %4, align 4, !tbaa !8
  %9 = sext i32 %8 to i64
  %10 = getelementptr inbounds %struct.Wln_Vec_t_, ptr %7, i64 %9
  %11 = getelementptr inbounds nuw %struct.Wln_Vec_t_, ptr %10, i32 0, i32 1
  %12 = load i32, ptr %11, align 4, !tbaa !27
  ret i32 %12
}

; Function Attrs: inlinehint nounwind uwtable
define internal i32 @Wln_ObjInstId(ptr noundef %0, i32 noundef %1) #2 {
  %3 = alloca ptr, align 8
  %4 = alloca i32, align 4
  store ptr %0, ptr %3, align 8, !tbaa !18
  store i32 %1, ptr %4, align 4, !tbaa !8
  %5 = load ptr, ptr %3, align 8, !tbaa !18
  %6 = getelementptr inbounds nuw %struct.Wln_Ntk_t_, ptr %5, i32 0, i32 11
  %7 = load i32, ptr %4, align 4, !tbaa !8
  %8 = call i32 @Vec_IntEntry(ptr noundef %6, i32 noundef %7)
  ret i32 %8
}

; Function Attrs: inlinehint nounwind uwtable
define internal i32 @Wln_ObjNameId(ptr noundef %0, i32 noundef %1) #2 {
  %3 = alloca ptr, align 8
  %4 = alloca i32, align 4
  store ptr %0, ptr %3, align 8, !tbaa !18
  store i32 %1, ptr %4, align 4, !tbaa !8
  %5 = load ptr, ptr %3, align 8, !tbaa !18
  %6 = getelementptr inbounds nuw %struct.Wln_Ntk_t_, ptr %5, i32 0, i32 10
  %7 = load i32, ptr %4, align 4, !tbaa !8
  %8 = call i32 @Vec_IntEntry(ptr noundef %6, i32 noundef %7)
  ret i32 %8
}

; Function Attrs: inlinehint nounwind uwtable
define internal i32 @Wln_ObjType(ptr noundef %0, i32 noundef %1) #2 {
  %3 = alloca ptr, align 8
  %4 = alloca i32, align 4
  store ptr %0, ptr %3, align 8, !tbaa !18
  store i32 %1, ptr %4, align 4, !tbaa !8
  %5 = load ptr, ptr %3, align 8, !tbaa !18
  %6 = getelementptr inbounds nuw %struct.Wln_Ntk_t_, ptr %5, i32 0, i32 6
  %7 = load i32, ptr %4, align 4, !tbaa !8
  %8 = call i32 @Vec_IntEntry(ptr noundef %6, i32 noundef %7)
  ret i32 %8
}

; Function Attrs: nounwind uwtable
define void @Wln_RetPrintObj(ptr noundef %0, i32 noundef %1) #0 {
  %3 = alloca ptr, align 8
  %4 = alloca i32, align 4
  %5 = alloca i32, align 4
  %6 = alloca i32, align 4
  %7 = alloca i32, align 4
  %8 = alloca ptr, align 8
  store ptr %0, ptr %3, align 8, !tbaa !3
  store i32 %1, ptr %4, align 4, !tbaa !8
  call void @llvm.lifetime.start.p0(i64 4, ptr %5) #11
  call void @llvm.lifetime.start.p0(i64 4, ptr %6) #11
  call void @llvm.lifetime.start.p0(i64 4, ptr %7) #11
  %9 = load ptr, ptr %3, align 8, !tbaa !3
  %10 = getelementptr inbounds nuw %struct.Wln_Ret_t_, ptr %9, i32 0, i32 0
  %11 = load ptr, ptr %10, align 8, !tbaa !10
  %12 = load i32, ptr %4, align 4, !tbaa !8
  %13 = call i32 @Wln_ObjType(ptr noundef %11, i32 noundef %12)
  store i32 %13, ptr %7, align 4, !tbaa !8
  call void @llvm.lifetime.start.p0(i64 8, ptr %8) #11
  %14 = load i32, ptr %4, align 4, !tbaa !8
  %15 = load i32, ptr %7, align 4, !tbaa !8
  %16 = call ptr @Abc_OperName(i32 noundef %15)
  %17 = load ptr, ptr %3, align 8, !tbaa !3
  %18 = getelementptr inbounds nuw %struct.Wln_Ret_t_, ptr %17, i32 0, i32 0
  %19 = load ptr, ptr %18, align 8, !tbaa !10
  %20 = load i32, ptr %4, align 4, !tbaa !8
  %21 = call i32 @Wln_ObjNameId(ptr noundef %19, i32 noundef %20)
  %22 = load ptr, ptr %3, align 8, !tbaa !3
  %23 = getelementptr inbounds nuw %struct.Wln_Ret_t_, ptr %22, i32 0, i32 0
  %24 = load ptr, ptr %23, align 8, !tbaa !10
  %25 = load i32, ptr %4, align 4, !tbaa !8
  %26 = call i32 @Wln_ObjInstId(ptr noundef %24, i32 noundef %25)
  %27 = load ptr, ptr %3, align 8, !tbaa !3
  %28 = getelementptr inbounds nuw %struct.Wln_Ret_t_, ptr %27, i32 0, i32 0
  %29 = load ptr, ptr %28, align 8, !tbaa !10
  %30 = load i32, ptr %4, align 4, !tbaa !8
  %31 = call i32 @Wln_ObjFaninNum(ptr noundef %29, i32 noundef %30)
  %32 = call i32 (ptr, ...) @printf(ptr noundef @.str, i32 noundef %14, ptr noundef %16, i32 noundef %21, i32 noundef %26, i32 noundef %31)
  store i32 0, ptr %5, align 4, !tbaa !8
  br label %33

33:                                               ; preds = %107, %2
  %34 = load i32, ptr %5, align 4, !tbaa !8
  %35 = load ptr, ptr %3, align 8, !tbaa !3
  %36 = getelementptr inbounds nuw %struct.Wln_Ret_t_, ptr %35, i32 0, i32 0
  %37 = load ptr, ptr %36, align 8, !tbaa !10
  %38 = load i32, ptr %4, align 4, !tbaa !8
  %39 = call i32 @Wln_ObjFaninNum(ptr noundef %37, i32 noundef %38)
  %40 = icmp slt i32 %34, %39
  br i1 %40, label %41, label %60

41:                                               ; preds = %33
  %42 = load ptr, ptr %3, align 8, !tbaa !3
  %43 = load i32, ptr %4, align 4, !tbaa !8
  %44 = call ptr @Wln_RetFanins(ptr noundef %42, i32 noundef %43)
  %45 = load i32, ptr %5, align 4, !tbaa !8
  %46 = mul nsw i32 2, %45
  %47 = sext i32 %46 to i64
  %48 = getelementptr inbounds i32, ptr %44, i64 %47
  %49 = load i32, ptr %48, align 4, !tbaa !8
  store i32 %49, ptr %6, align 4, !tbaa !8
  br i1 true, label %50, label %60

50:                                               ; preds = %41
  %51 = load ptr, ptr %3, align 8, !tbaa !3
  %52 = load i32, ptr %4, align 4, !tbaa !8
  %53 = call ptr @Wln_RetFanins(ptr noundef %51, i32 noundef %52)
  %54 = load i32, ptr %5, align 4, !tbaa !8
  %55 = mul nsw i32 2, %54
  %56 = sext i32 %55 to i64
  %57 = getelementptr inbounds i32, ptr %53, i64 %56
  %58 = getelementptr inbounds i32, ptr %57, i64 1
  store ptr %58, ptr %8, align 8, !tbaa !15
  %59 = icmp ne ptr %58, null
  br label %60

60:                                               ; preds = %50, %41, %33
  %61 = phi i1 [ false, %41 ], [ false, %33 ], [ %59, %50 ]
  br i1 %61, label %62, label %110

62:                                               ; preds = %60
  %63 = load i32, ptr %6, align 4, !tbaa !8
  %64 = icmp ne i32 %63, 0
  br i1 %64, label %65, label %79

65:                                               ; preds = %62
  %66 = load ptr, ptr %3, align 8, !tbaa !3
  %67 = getelementptr inbounds nuw %struct.Wln_Ret_t_, ptr %66, i32 0, i32 0
  %68 = load ptr, ptr %67, align 8, !tbaa !10
  %69 = load i32, ptr %6, align 4, !tbaa !8
  %70 = call i32 @Wln_ObjFaninNum(ptr noundef %68, i32 noundef %69)
  %71 = icmp ne i32 %70, 0
  br i1 %71, label %80, label %72

72:                                               ; preds = %65
  %73 = load ptr, ptr %3, align 8, !tbaa !3
  %74 = getelementptr inbounds nuw %struct.Wln_Ret_t_, ptr %73, i32 0, i32 0
  %75 = load ptr, ptr %74, align 8, !tbaa !10
  %76 = load i32, ptr %6, align 4, !tbaa !8
  %77 = call i32 @Wln_ObjIsCi(ptr noundef %75, i32 noundef %76)
  %78 = icmp ne i32 %77, 0
  br i1 %78, label %80, label %79

79:                                               ; preds = %72, %62
  br label %106

80:                                               ; preds = %72, %65
  %81 = load i32, ptr %6, align 4, !tbaa !8
  %82 = call i32 (ptr, ...) @printf(ptr noundef @.str.1, i32 noundef %81)
  %83 = load ptr, ptr %8, align 8, !tbaa !15
  %84 = getelementptr inbounds i32, ptr %83, i64 0
  %85 = load i32, ptr %84, align 4, !tbaa !8
  %86 = icmp ne i32 %85, 0
  br i1 %86, label %88, label %87

87:                                               ; preds = %80
  br label %107

88:                                               ; preds = %80
  %89 = load ptr, ptr %8, align 8, !tbaa !15
  %90 = getelementptr inbounds i32, ptr %89, i64 0
  %91 = load i32, ptr %90, align 4, !tbaa !8
  %92 = load ptr, ptr %3, align 8, !tbaa !3
  %93 = getelementptr inbounds nuw %struct.Wln_Ret_t_, ptr %92, i32 0, i32 3
  %94 = load ptr, ptr %8, align 8, !tbaa !15
  %95 = getelementptr inbounds i32, ptr %94, i64 0
  %96 = load i32, ptr %95, align 4, !tbaa !8
  %97 = call i32 @Vec_IntEntry(ptr noundef %93, i32 noundef %96)
  %98 = load ptr, ptr %3, align 8, !tbaa !3
  %99 = getelementptr inbounds nuw %struct.Wln_Ret_t_, ptr %98, i32 0, i32 3
  %100 = load ptr, ptr %8, align 8, !tbaa !15
  %101 = getelementptr inbounds i32, ptr %100, i64 0
  %102 = load i32, ptr %101, align 4, !tbaa !8
  %103 = add nsw i32 %102, 1
  %104 = call i32 @Vec_IntEntry(ptr noundef %99, i32 noundef %103)
  %105 = call i32 (ptr, ...) @printf(ptr noundef @.str.2, i32 noundef %91, i32 noundef %97, i32 noundef %104)
  br label %106

106:                                              ; preds = %88, %79
  br label %107

107:                                              ; preds = %106, %87
  %108 = load i32, ptr %5, align 4, !tbaa !8
  %109 = add nsw i32 %108, 1
  store i32 %109, ptr %5, align 4, !tbaa !8
  br label %33, !llvm.loop !16

110:                                              ; preds = %60
  %111 = call i32 (ptr, ...) @printf(ptr noundef @.str.3)
  call void @llvm.lifetime.end.p0(i64 8, ptr %8) #11
  call void @llvm.lifetime.end.p0(i64 4, ptr %7) #11
  call void @llvm.lifetime.end.p0(i64 4, ptr %6) #11
  call void @llvm.lifetime.end.p0(i64 4, ptr %5) #11
  ret void
}