; Function Attrs: nofree nounwind uwtable
define void @Wln_RetPrintObj(ptr noundef readonly captures(none) %0, i32 noundef %1) local_unnamed_addr #0 {
  %3 = load ptr, ptr %0, align 8, !tbaa !3
  %4 = getelementptr i8, ptr %3, i64 80
  %.val37 = load ptr, ptr %4, align 8, !tbaa !12
  %5 = sext i32 %1 to i64
  %6 = getelementptr inbounds i32, ptr %.val37, i64 %5
  %7 = load i32, ptr %6, align 4, !tbaa !13
  %8 = tail call fastcc ptr @Abc_OperName(i32 noundef %7)
  %9 = getelementptr i8, ptr %3, i64 128
  %.val38 = load ptr, ptr %9, align 8, !tbaa !12
  %10 = getelementptr inbounds i32, ptr %.val38, i64 %5
  %11 = load i32, ptr %10, align 4, !tbaa !13
  %12 = getelementptr i8, ptr %3, i64 144
  %.val39 = load ptr, ptr %12, align 8, !tbaa !12
  %13 = getelementptr inbounds i32, ptr %.val39, i64 %5
  %14 = load i32, ptr %13, align 4, !tbaa !13
  %15 = getelementptr i8, ptr %3, i64 88
  %.val40 = load ptr, ptr %15, align 8, !tbaa !14
  %16 = getelementptr inbounds %struct.Wln_Vec_t_, ptr %.val40, i64 %5, i32 1
  %17 = load i32, ptr %16, align 4, !tbaa !22
  %18 = tail call i32 (ptr, ...) @printf(ptr noundef nonnull dereferenceable(1) @.str, i32 noundef %1, ptr noundef %8, i32 noundef %11, i32 noundef %14, i32 noundef %17)
  %19 = load ptr, ptr %0, align 8, !tbaa !3
  %20 = getelementptr i8, ptr %19, i64 88
  %.val4147 = load ptr, ptr %20, align 8, !tbaa !14
  %21 = getelementptr inbounds %struct.Wln_Vec_t_, ptr %.val4147, i64 %5, i32 1
  %22 = load i32, ptr %21, align 4, !tbaa !22
  %23 = icmp sgt i32 %22, 0
  br i1 %23, label %.lr.ph, label %.critedge

.lr.ph:                                           ; preds = %2
  %24 = getelementptr i8, ptr %0, i64 16
  %25 = getelementptr i8, ptr %0, i64 48
  br label %26

26:                                               ; preds = %.lr.ph, %53
  %indvars.iv = phi i64 [ 0, %.lr.ph ], [ %indvars.iv.next, %53 ]
  %.val4149 = phi ptr [ %.val4147, %.lr.ph ], [ %.val41, %53 ]
  %27 = phi ptr [ %19, %.lr.ph ], [ %54, %53 ]
  %.val43 = load ptr, ptr %24, align 8, !tbaa !12
  %28 = getelementptr inbounds i32, ptr %.val43, i64 %5
  %29 = load i32, ptr %28, align 4, !tbaa !13
  %30 = sext i32 %29 to i64
  %31 = getelementptr inbounds i32, ptr %.val43, i64 %30
  %.idx = shl nuw nsw i64 %indvars.iv, 3
  %32 = getelementptr inbounds nuw i8, ptr %31, i64 %.idx
  %33 = load i32, ptr %32, align 4, !tbaa !13
  %34 = getelementptr inbounds nuw i8, ptr %32, i64 4
  %.not = icmp eq i32 %33, 0
  br i1 %.not, label %53, label %35

35:                                               ; preds = %26
  %36 = sext i32 %33 to i64
  %37 = getelementptr inbounds %struct.Wln_Vec_t_, ptr %.val4149, i64 %36, i32 1
  %38 = load i32, ptr %37, align 4, !tbaa !22
  %.not33 = icmp eq i32 %38, 0
  br i1 %.not33, label %39, label %43

39:                                               ; preds = %35
  %40 = getelementptr i8, ptr %27, i64 80
  %.val45 = load ptr, ptr %40, align 8, !tbaa !12
  %41 = getelementptr inbounds i32, ptr %.val45, i64 %36
  %42 = load i32, ptr %41, align 4, !tbaa !13
  %.not46 = icmp eq i32 %42, 3
  br i1 %.not46, label %43, label %53

43:                                               ; preds = %39, %35
  %44 = tail call i32 (ptr, ...) @printf(ptr noundef nonnull dereferenceable(1) @.str.1, i32 noundef %33)
  %45 = load i32, ptr %34, align 4, !tbaa !13
  %.not35 = icmp eq i32 %45, 0
  br i1 %.not35, label %53, label %46

46:                                               ; preds = %43
  %.val = load ptr, ptr %25, align 8, !tbaa !12
  %47 = sext i32 %45 to i64
  %48 = getelementptr i32, ptr %.val, i64 %47
  %49 = load i32, ptr %48, align 4, !tbaa !13
  %50 = getelementptr i8, ptr %48, i64 4
  %51 = load i32, ptr %50, align 4, !tbaa !13
  %52 = tail call i32 (ptr, ...) @printf(ptr noundef nonnull dereferenceable(1) @.str.2, i32 noundef %45, i32 noundef %49, i32 noundef %51)
  br label %53

53:                                               ; preds = %46, %39, %26, %43
  %indvars.iv.next = add nuw nsw i64 %indvars.iv, 1
  %54 = load ptr, ptr %0, align 8, !tbaa !3
  %55 = getelementptr i8, ptr %54, i64 88
  %.val41 = load ptr, ptr %55, align 8, !tbaa !14
  %56 = getelementptr inbounds %struct.Wln_Vec_t_, ptr %.val41, i64 %5, i32 1
  %57 = load i32, ptr %56, align 4, !tbaa !22
  %58 = sext i32 %57 to i64
  %59 = icmp slt i64 %indvars.iv.next, %58
  br i1 %59, label %26, label %.critedge, !llvm.loop !24

.critedge:                                        ; preds = %53, %2
  %putchar = tail call i32 @putchar(i32 10)
  ret void
}